Certificate:
    Data:
        Version: 3 (0x2)
        Serial Number:
            fb:8e:48:37:a3:8b:37:a3:7d:07:a6:4f:a5:2b:d9:1b
        Signature Algorithm: sha256WithRSAEncryption
        Issuer: CN=ChangeMe
        Validity
            Not Before: Sep 12 07:53:27 2022 GMT
            Not After : Apr  7 07:53:27 2052 GMT
        Subject: CN=exch_adm
        Subject Public Key Info:
            Public Key Algorithm: rsaEncryption
                Public-Key: (2048 bit)
                Modulus:
                    00:c5:8b:3e:1c:17:a4:0e:f6:3f:d9:ef:e8:42:02:
                    2f:09:01:1e:e5:fd:27:ed:25:8f:87:6a:a1:00:7c:
                    17:58:84:dd:90:be:e9:76:a3:a9:f0:87:f3:26:cf:
                    2e:74:a4:55:6d:2a:ef:41:57:e2:6b:b5:ce:ca:41:
                    51:3d:c4:f4:af:35:35:ef:3e:af:a1:32:6f:a4:7f:
                    e0:06:b3:6a:a7:c0:9b:18:50:b2:c0:c1:10:e6:f3:
                    b4:1a:fc:23:51:56:93:74:e4:42:aa:ad:e0:8d:b7:
                    ce:6e:10:38:40:e4:c5:64:a2:73:bb:15:6b:45:1c:
                    95:c9:98:94:fd:5e:f1:33:25:98:05:96:95:7a:b0:
                    81:1d:50:4c:c7:c9:99:c4:7f:13:14:40:8a:ec:5c:
                    65:16:ec:b4:65:d9:a1:f9:71:e6:39:05:cd:09:1b:
                    3a:d1:b6:53:01:48:f7:fa:ea:f6:57:f6:9f:62:a3:
                    16:8a:0a:84:f4:71:de:19:a0:c8:3f:4c:76:93:da:
                    77:55:64:98:02:13:d3:7a:b7:69:c7:dc:65:59:8f:
                    5e:cf:2c:ab:26:9e:03:d4:8d:9a:87:a4:de:ba:b5:
                    1c:d5:d8:fa:17:f6:04:28:d2:fa:9e:96:55:9a:45:
                    5c:c4:c8:48:97:2e:06:09:80:25:3d:96:15:7a:b2:
                    08:25
                Exponent: 65537 (0x10001)
        X509v3 extensions:
            X509v3 Basic Constraints: 
                CA:FALSE
            X509v3 Subject Key Identifier: 
                CD:10:07:AC:D0:F8:C6:07:55:A9:99:73:9C:A3:B3:11:49:99:1F:EE
            X509v3 Authority Key Identifier: 
                keyid:29:C0:01:7A:39:2E:93:30:6C:49:7A:25:4F:81:E8:F3:C3:D5:8C:EB
                DirName:/CN=ChangeMe
                serial:1F:68:3E:80:08:77:8E:62:CA:1C:02:10:AB:4C:60:2A:F6:79:02:0D
            X509v3 Extended Key Usage: 
                TLS Web Client Authentication
            X509v3 Key Usage: 
                Digital Signature
    Signature Algorithm: sha256WithRSAEncryption
    Signature Value:
        96:99:08:10:e0:5a:b7:95:c6:cb:4f:b1:fc:d0:40:15:50:7b:
        48:42:4c:d1:71:f1:44:8c:84:44:c9:64:fe:1f:05:ce:7a:cb:
        7d:d2:08:40:23:84:44:ae:23:51:dc:65:4d:ee:76:24:49:ba:
        66:64:98:71:36:4f:da:b7:8f:31:17:38:46:21:62:57:05:ef:
        e5:81:53:c3:e9:48:4d:b3:14:32:29:fc:fc:7a:da:59:67:a5:
        0f:e8:1a:51:dd:88:dd:04:e2:51:13:91:68:b0:26:c8:53:81:
        8e:7e:ca:da:61:58:05:d7:55:fc:e7:43:b2:9c:4b:a1:a0:3e:
        6a:26:64:10:db:33:58:05:ab:c6:ec:de:90:c9:1a:38:0e:e8:
        2b:bb:26:3c:02:d2:0d:ee:31:e0:26:95:51:d0:6b:5f:56:75:
        c7:20:70:58:8a:a2:24:25:ae:6e:e1:31:0b:ec:8f:ef:8c:aa:
        82:76:40:44:61:82:50:ab:be:90:f3:96:03:c5:f4:b3:1e:37:
        5d:ba:63:68:45:9c:48:ca:e3:6b:2d:69:60:7f:1c:4b:27:ef:
        d4:ae:1d:e4:13:23:45:69:d9:1f:57:7a:f0:f1:12:93:e7:8b:
        11:fe:e9:78:7f:9b:83:91:7b:e2:4a:f9:88:5e:8b:b5:be:63:
        92:4e:98:9b
-----BEGIN CERTIFICATE-----
MIIDUzCCAjugAwIBAgIRAPuOSDejizejfQemT6Ur2RswDQYJKoZIhvcNAQELBQAw
EzERMA8GA1UEAwwIQ2hhbmdlTWUwIBcNMjIwOTEyMDc1MzI3WhgPMjA1MjA0MDcw
NzUzMjdaMBMxETAPBgNVBAMMCGV4Y2hfYWRtMIIBIjANBgkqhkiG9w0BAQEFAAOC
AQ8AMIIBCgKCAQEAxYs+HBekDvY/2e/oQgIvCQEe5f0n7SWPh2qhAHwXWITdkL7p
dqOp8IfzJs8udKRVbSrvQVfia7XOykFRPcT0rzU17z6voTJvpH/gBrNqp8CbGFCy
wMEQ5vO0GvwjUVaTdORCqq3gjbfObhA4QOTFZKJzuxVrRRyVyZiU/V7xMyWYBZaV
erCBHVBMx8mZxH8TFECK7FxlFuy0Zdmh+XHmOQXNCRs60bZTAUj3+ur2V/afYqMW
igqE9HHeGaDIP0x2k9p3VWSYAhPTerdpx9xlWY9ezyyrJp4D1I2ah6TeurUc1dj6
F/YEKNL6npZVmkVcxMhIly4GCYAlPZYVerIIJQIDAQABo4GfMIGcMAkGA1UdEwQC
MAAwHQYDVR0OBBYEFM0QB6zQ+MYHVamZc5yjsxFJmR/uME4GA1UdIwRHMEWAFCnA
AXo5LpMwbEl6JU+B6PPD1YzroRekFTATMREwDwYDVQQDDAhDaGFuZ2VNZYIUH2g+
gAh3jmLKHAIQq0xgKvZ5Ag0wEwYDVR0lBAwwCgYIKwYBBQUHAwIwCwYDVR0PBAQD
AgeAMA0GCSqGSIb3DQEBCwUAA4IBAQCWmQgQ4Fq3lcbLT7H80EAVUHtIQkzRcfFE
jIREyWT+HwXOest90ghAI4REriNR3GVN7nYkSbpmZJhxNk/at48xFzhGIWJXBe/l
gVPD6UhNsxQyKfz8etpZZ6UP6BpR3YjdBOJRE5FosCbIU4GOfsraYVgF11X850Oy
nEuhoD5qJmQQ2zNYBavG7N6QyRo4DugruyY8AtIN7jHgJpVR0GtfVnXHIHBYiqIk
Ja5u4TEL7I/vjKqCdkBEYYJQq76Q85YDxfSzHjddumNoRZxIyuNrLWlgfxxLJ+/U
rh3kEyNFadkfV3rw8RKT54sR/ul4f5uDkXviSvmIXou1vmOSTpib
-----END CERTIFICATE-----
